target datalayout = "e-m:e-p270:32:32-p271:32:32-p272:64:64-i64:64-i128:128-f80:128-n8:16:32:64-S128"
target triple = "x86_64-pc-linux-gnu"

%struct.AVFilterContext = type { ptr, ptr, ptr, ptr, ptr, i32, ptr, ptr, i32, ptr, ptr, i32, i32, ptr, ptr, ptr, ptr, i32, ptr, i32, i32 }
%struct.MorphoContext = type { ptr, %struct.FFFrameSync, [4 x %struct.chord_set], [4 x %struct.IPlane], [4 x %struct.IPlane], [4 x %struct.IPlane], [4 x %struct.IPlane], [64 x [2 x [4 x %struct.LUT]]], i32, i32, i32, [4 x i32], [4 x i32], [4 x i32], [4 x i32], i32, i32, i32, [4 x i32], ptr, ptr, ptr }
%struct.FFFrameSync = type { ptr, ptr, i32, %struct.AVRational, i64, ptr, ptr, i32, i32, i8, i8, ptr, i32, i32, i32, i32 }
%struct.AVRational = type { i32, i32 }
%struct.chord_set = type { ptr, i32, i32, ptr, i32, i32, i32, i32, i32, i32 }
%struct.IPlane = type { ptr, i32, i32, i32, i32, i32, ptr, ptr, ptr, ptr, ptr, ptr }
%struct.LUT = type { ptr, ptr, i32, i32, i32, i32, i32, i32 }

; Function Attrs: nounwind uwtable
define internal void @free_chord_set(ptr noundef %0) #0 {
  %2 = alloca ptr, align 8
  store ptr %0, ptr %2, align 8, !tbaa !89
  %3 = load ptr, ptr %2, align 8, !tbaa !89
  %4 = getelementptr inbounds nuw %struct.chord_set, ptr %3, i32 0, i32 0
  call void @av_freep(ptr noundef %4)
  %5 = load ptr, ptr %2, align 8, !tbaa !89
  %6 = getelementptr inbounds nuw %struct.chord_set, ptr %5, i32 0, i32 1
  store i32 0, ptr %6, align 8, !tbaa !91
  %7 = load ptr, ptr %2, align 8, !tbaa !89
  %8 = getelementptr inbounds nuw %struct.chord_set, ptr %7, i32 0, i32 2
  store i32 0, ptr %8, align 4, !tbaa !95
  %9 = load ptr, ptr %2, align 8, !tbaa !89
  %10 = getelementptr inbounds nuw %struct.chord_set, ptr %9, i32 0, i32 3
  call void @av_freep(ptr noundef %10)
  %11 = load ptr, ptr %2, align 8, !tbaa !89
  %12 = getelementptr inbounds nuw %struct.chord_set, ptr %11, i32 0, i32 4
  store i32 0, ptr %12, align 8, !tbaa !96
  ret void
}

; Function Attrs: nounwind uwtable
define internal void @free_iplane(ptr noundef %0) #0 {
  %2 = alloca ptr, align 8
  store ptr %0, ptr %2, align 8, !tbaa !97
  %3 = load ptr, ptr %2, align 8, !tbaa !97
  %4 = getelementptr inbounds nuw %struct.IPlane, ptr %3, i32 0, i32 0
  call void @av_freep(ptr noundef %4)
  ret void
}

; Function Attrs: cold nounwind optsize uwtable
define internal void @uninit(ptr noundef %0) #1 {
  %2 = alloca ptr, align 8
  %3 = alloca ptr, align 8
  %4 = alloca i32, align 4
  %5 = alloca i32, align 4
  %6 = alloca i32, align 4
  store ptr %0, ptr %2, align 8, !tbaa !4
  call void @llvm.lifetime.start.p0(i64 8, ptr %3) #12
  %7 = load ptr, ptr %2, align 8, !tbaa !4
  %8 = getelementptr inbounds nuw %struct.AVFilterContext, ptr %7, i32 0, i32 9
  %9 = load ptr, ptr %8, align 8, !tbaa !9
  store ptr %9, ptr %3, align 8, !tbaa !22
  call void @llvm.lifetime.start.p0(i64 4, ptr %4) #12
  store i32 0, ptr %4, align 4, !tbaa !24
  br label %10

10:                                               ; preds = %67, %1
  %11 = load i32, ptr %4, align 4, !tbaa !24
  %12 = icmp slt i32 %11, 4
  br i1 %12, label %14, label %13

13:                                               ; preds = %10
  store i32 2, ptr %5, align 4
  call void @llvm.lifetime.end.p0(i64 4, ptr %4) #12
  br label %70

14:                                               ; preds = %10
  %15 = load ptr, ptr %3, align 8, !tbaa !22
  %16 = getelementptr inbounds nuw %struct.MorphoContext, ptr %15, i32 0, i32 3
  %17 = load i32, ptr %4, align 4, !tbaa !24
  %18 = sext i32 %17 to i64
  %19 = getelementptr inbounds [4 x %struct.IPlane], ptr %16, i64 0, i64 %18
  call void @free_iplane(ptr noundef %19)
  %20 = load ptr, ptr %3, align 8, !tbaa !22
  %21 = getelementptr inbounds nuw %struct.MorphoContext, ptr %20, i32 0, i32 5
  %22 = load i32, ptr %4, align 4, !tbaa !24
  %23 = sext i32 %22 to i64
  %24 = getelementptr inbounds [4 x %struct.IPlane], ptr %21, i64 0, i64 %23
  call void @free_iplane(ptr noundef %24)
  %25 = load ptr, ptr %3, align 8, !tbaa !22
  %26 = getelementptr inbounds nuw %struct.MorphoContext, ptr %25, i32 0, i32 4
  %27 = load i32, ptr %4, align 4, !tbaa !24
  %28 = sext i32 %27 to i64
  %29 = getelementptr inbounds [4 x %struct.IPlane], ptr %26, i64 0, i64 %28
  call void @free_iplane(ptr noundef %29)
  %30 = load ptr, ptr %3, align 8, !tbaa !22
  %31 = getelementptr inbounds nuw %struct.MorphoContext, ptr %30, i32 0, i32 6
  %32 = load i32, ptr %4, align 4, !tbaa !24
  %33 = sext i32 %32 to i64
  %34 = getelementptr inbounds [4 x %struct.IPlane], ptr %31, i64 0, i64 %33
  call void @free_iplane(ptr noundef %34)
  %35 = load ptr, ptr %3, align 8, !tbaa !22
  %36 = getelementptr inbounds nuw %struct.MorphoContext, ptr %35, i32 0, i32 2
  %37 = load i32, ptr %4, align 4, !tbaa !24
  %38 = sext i32 %37 to i64
  %39 = getelementptr inbounds [4 x %struct.chord_set], ptr %36, i64 0, i64 %38
  call void @free_chord_set(ptr noundef %39)
  call void @llvm.lifetime.start.p0(i64 4, ptr %6) #12
  store i32 0, ptr %6, align 4, !tbaa !24
  br label %40

40:                                               ; preds = %63, %14
  %41 = load i32, ptr %6, align 4, !tbaa !24
  %42 = icmp slt i32 %41, 64
  br i1 %42, label %44, label %43

43:                                               ; preds = %40
  store i32 5, ptr %5, align 4
  call void @llvm.lifetime.end.p0(i64 4, ptr %6) #12
  br label %66

44:                                               ; preds = %40
  %45 = load ptr, ptr %3, align 8, !tbaa !22
  %46 = getelementptr inbounds nuw %struct.MorphoContext, ptr %45, i32 0, i32 7
  %47 = load i32, ptr %6, align 4, !tbaa !24
  %48 = sext i32 %47 to i64
  %49 = getelementptr inbounds [64 x [2 x [4 x %struct.LUT]]], ptr %46, i64 0, i64 %48
  %50 = getelementptr inbounds [2 x [4 x %struct.LUT]], ptr %49, i64 0, i64 0
  %51 = load i32, ptr %4, align 4, !tbaa !24
  %52 = sext i32 %51 to i64
  %53 = getelementptr inbounds [4 x %struct.LUT], ptr %50, i64 0, i64 %52
  call void @free_lut(ptr noundef %53)
  %54 = load ptr, ptr %3, align 8, !tbaa !22
  %55 = getelementptr inbounds nuw %struct.MorphoContext, ptr %54, i32 0, i32 7
  %56 = load i32, ptr %6, align 4, !tbaa !24
  %57 = sext i32 %56 to i64
  %58 = getelementptr inbounds [64 x [2 x [4 x %struct.LUT]]], ptr %55, i64 0, i64 %57
  %59 = getelementptr inbounds [2 x [4 x %struct.LUT]], ptr %58, i64 0, i64 1
  %60 = load i32, ptr %4, align 4, !tbaa !24
  %61 = sext i32 %60 to i64
  %62 = getelementptr inbounds [4 x %struct.LUT], ptr %59, i64 0, i64 %61
  call void @free_lut(ptr noundef %62)
  br label %63

63:                                               ; preds = %44
  %64 = load i32, ptr %6, align 4, !tbaa !24
  %65 = add nsw i32 %64, 1
  store i32 %65, ptr %6, align 4, !tbaa !24
  br label %40, !llvm.loop !25

66:                                               ; preds = %43
  br label %67

67:                                               ; preds = %66
  %68 = load i32, ptr %4, align 4, !tbaa !24
  %69 = add nsw i32 %68, 1
  store i32 %69, ptr %4, align 4, !tbaa !24
  br label %10, !llvm.loop !27

70:                                               ; preds = %13
  %71 = load ptr, ptr %3, align 8, !tbaa !22
  %72 = getelementptr inbounds nuw %struct.MorphoContext, ptr %71, i32 0, i32 1
  call void @ff_framesync_uninit(ptr noundef %72)
  %73 = load ptr, ptr %3, align 8, !tbaa !22
  %74 = getelementptr inbounds nuw %struct.MorphoContext, ptr %73, i32 0, i32 19
  call void @av_frame_free(ptr noundef %74)
  %75 = load ptr, ptr %3, align 8, !tbaa !22
  %76 = getelementptr inbounds nuw %struct.MorphoContext, ptr %75, i32 0, i32 20
  call void @av_freep(ptr noundef %76)
  %77 = load ptr, ptr %3, align 8, !tbaa !22
  %78 = getelementptr inbounds nuw %struct.MorphoContext, ptr %77, i32 0, i32 21
  call void @av_freep(ptr noundef %78)
  call void @llvm.lifetime.end.p0(i64 8, ptr %3) #12
  ret void
}