; Function Attrs: cold nounwind optsize uwtable
define internal void @uninit(ptr noundef readonly captures(none) %0) #1 {
  %2 = getelementptr inbounds nuw i8, ptr %0, i64 72
  %3 = load ptr, ptr %2, align 8, !tbaa !4
  %4 = getelementptr inbounds nuw i8, ptr %3, i64 296
  %5 = getelementptr inbounds nuw i8, ptr %3, i64 936
  %6 = getelementptr inbounds nuw i8, ptr %3, i64 616
  %7 = getelementptr inbounds nuw i8, ptr %3, i64 1256
  %8 = getelementptr inbounds nuw i8, ptr %3, i64 104
  %9 = getelementptr inbounds nuw i8, ptr %3, i64 1576
  br label %15

10:                                               ; preds = %25
  %11 = getelementptr inbounds nuw i8, ptr %3, i64 8
  tail call void @ff_framesync_uninit(ptr noundef nonnull %11) #14
  %12 = getelementptr inbounds nuw i8, ptr %3, i64 22160
  tail call void @av_frame_free(ptr noundef nonnull %12) #14
  %13 = getelementptr inbounds nuw i8, ptr %3, i64 22168
  tail call void @av_freep(ptr noundef nonnull %13) #14
  %14 = getelementptr inbounds nuw i8, ptr %3, i64 22176
  tail call void @av_freep(ptr noundef nonnull %14) #14
  ret void

15:                                               ; preds = %1, %25
  %indvars.iv28 = phi i64 [ 0, %1 ], [ %indvars.iv.next29, %25 ]
  %16 = getelementptr inbounds nuw [4 x %struct.IPlane], ptr %4, i64 0, i64 %indvars.iv28
  tail call void @av_freep(ptr noundef nonnull %16) #14
  %17 = getelementptr inbounds nuw [4 x %struct.IPlane], ptr %5, i64 0, i64 %indvars.iv28
  tail call void @av_freep(ptr noundef nonnull %17) #14
  %18 = getelementptr inbounds nuw [4 x %struct.IPlane], ptr %6, i64 0, i64 %indvars.iv28
  tail call void @av_freep(ptr noundef nonnull %18) #14
  %19 = getelementptr inbounds nuw [4 x %struct.IPlane], ptr %7, i64 0, i64 %indvars.iv28
  tail call void @av_freep(ptr noundef nonnull %19) #14
  %20 = getelementptr inbounds nuw [4 x %struct.chord_set], ptr %8, i64 0, i64 %indvars.iv28
  tail call void @av_freep(ptr noundef nonnull %20) #14
  %21 = getelementptr inbounds nuw i8, ptr %20, i64 8
  store i32 0, ptr %21, align 8, !tbaa !20
  %22 = getelementptr inbounds nuw i8, ptr %20, i64 12
  store i32 0, ptr %22, align 4, !tbaa !24
  %23 = getelementptr inbounds nuw i8, ptr %20, i64 16
  tail call void @av_freep(ptr noundef nonnull %23) #14
  %24 = getelementptr inbounds nuw i8, ptr %20, i64 24
  store i32 0, ptr %24, align 8, !tbaa !25
  br label %26

25:                                               ; preds = %26
  %indvars.iv.next29 = add nuw nsw i64 %indvars.iv28, 1
  %exitcond31.not = icmp eq i64 %indvars.iv.next29, 4
  br i1 %exitcond31.not, label %10, label %15, !llvm.loop !26

26:                                               ; preds = %15, %26
  %indvars.iv = phi i64 [ 0, %15 ], [ %indvars.iv.next, %26 ]
  %27 = getelementptr inbounds nuw [64 x [2 x [4 x %struct.LUT]]], ptr %9, i64 0, i64 %indvars.iv
  %28 = getelementptr inbounds nuw [4 x %struct.LUT], ptr %27, i64 0, i64 %indvars.iv28
  tail call fastcc void @free_lut(ptr noundef nonnull %28)
  %29 = getelementptr inbounds nuw i8, ptr %27, i64 160
  %30 = getelementptr inbounds nuw [4 x %struct.LUT], ptr %29, i64 0, i64 %indvars.iv28
  tail call fastcc void @free_lut(ptr noundef nonnull %30)
  %indvars.iv.next = add nuw nsw i64 %indvars.iv, 1
  %exitcond.not = icmp eq i64 %indvars.iv.next, 64
  br i1 %exitcond.not, label %25, label %26, !llvm.loop !28
}